target datalayout = "e-m:e-p270:32:32-p271:32:32-p272:64:64-i64:64-i128:128-f80:128-n8:16:32:64-S128"
target triple = "x86_64-unknown-linux-gnu"

%"union.absl::lts_20230802::functional_internal::VoidPtr" = type { ptr }
%"class.grpc_core::Activity" = type { %"class.grpc_core::Orphanable" }
%"class.grpc_core::Orphanable" = type { ptr }
%"class.grpc_core::promise_filter_detail::(anonymous namespace)::FakeActivity" = type { %"class.grpc_core::Activity", ptr }
%"class.absl::lts_20230802::FunctionRef.6" = type { %"union.absl::lts_20230802::functional_internal::VoidPtr", ptr }
%class.anon = type { ptr }
%"class.grpc_core::Activity::ScopedActivity" = type { ptr }

@_ZTVN9grpc_core8ActivityE = external unnamed_addr constant { [10 x ptr] }, align 8
@_ZTVN9grpc_core10OrphanableE = linkonce_odr unnamed_addr constant { [5 x ptr] } { [5 x ptr] [ptr null, ptr @_ZTIN9grpc_core10OrphanableE, ptr @__cxa_pure_virtual, ptr @_ZN9grpc_core10OrphanableD2Ev, ptr @_ZN9grpc_core10OrphanableD0Ev] }, comdat, align 8
@_ZN9grpc_core8Activity19g_current_activity_E = external thread_local global ptr, align 8

; Function Attrs: uwtable
define linkonce_odr hidden noundef ptr @_ZTWN9grpc_core8Activity19g_current_activity_E() #15 comdat {
  br i1 icmp ne (ptr @_ZTHN9grpc_core8Activity19g_current_activity_E, ptr null), label %1, label %2

1:                                                ; preds = %0
  call void @_ZTHN9grpc_core8Activity19g_current_activity_E()
  br label %2

2:                                                ; preds = %1, %0
  %3 = call align 8 ptr @llvm.threadlocal.address.p0(ptr align 8 @_ZN9grpc_core8Activity19g_current_activity_E)
  ret ptr %3
}

; Function Attrs: mustprogress nounwind uwtable
define linkonce_odr void @_ZN9grpc_core10OrphanableC2Ev(ptr noundef nonnull align 8 dereferenceable(8) %this) unnamed_addr #5 comdat align 2 {
entry:
  %this.addr = alloca ptr, align 8
  store ptr %this, ptr %this.addr, align 8
  %this1 = load ptr, ptr %this.addr, align 8
  store ptr getelementptr inbounds ({ [5 x ptr] }, ptr @_ZTVN9grpc_core10OrphanableE, i32 0, i32 0, i32 2), ptr %this1, align 8
  ret void
}

; Function Attrs: mustprogress nounwind uwtable
define linkonce_odr void @_ZN9grpc_core10OrphanableD2Ev(ptr noundef nonnull align 8 dereferenceable(8) %this) unnamed_addr #5 comdat align 2 {
entry:
  %this.addr = alloca ptr, align 8
  store ptr %this, ptr %this.addr, align 8
  ret void
}

; Function Attrs: mustprogress nounwind uwtable
define linkonce_odr void @_ZN9grpc_core8Activity14ScopedActivityD2Ev(ptr noundef nonnull align 8 dereferenceable(8) %this) unnamed_addr #5 comdat align 2 {
entry:
  %this.addr = alloca ptr, align 8
  store ptr %this, ptr %this.addr, align 8
  %this1 = load ptr, ptr %this.addr, align 8
  %prior_activity_ = getelementptr inbounds %"class.grpc_core::Activity::ScopedActivity", ptr %this1, i32 0, i32 0
  %0 = load ptr, ptr %prior_activity_, align 8
  %1 = call ptr @_ZTWN9grpc_core8Activity19g_current_activity_E()
  store ptr %0, ptr %1, align 8
  ret void
}

; Function Attrs: mustprogress uwtable
define linkonce_odr void @_ZNK4absl12lts_2023080211FunctionRefIFvvEEclEv(ptr noundef nonnull align 8 dereferenceable(16) %this) #4 comdat align 2 {
entry:
  %this.addr = alloca ptr, align 8
  %agg.tmp = alloca %"union.absl::lts_20230802::functional_internal::VoidPtr", align 8
  store ptr %this, ptr %this.addr, align 8
  %this1 = load ptr, ptr %this.addr, align 8
  %invoker_ = getelementptr inbounds %"class.absl::lts_20230802::FunctionRef.6", ptr %this1, i32 0, i32 1
  %0 = load ptr, ptr %invoker_, align 8
  %ptr_ = getelementptr inbounds %"class.absl::lts_20230802::FunctionRef.6", ptr %this1, i32 0, i32 0
  call void @llvm.memcpy.p0.p0.i64(ptr align 8 %agg.tmp, ptr align 8 %ptr_, i64 8, i1 false)
  %coerce.dive = getelementptr inbounds %"union.absl::lts_20230802::functional_internal::VoidPtr", ptr %agg.tmp, i32 0, i32 0
  %1 = load ptr, ptr %coerce.dive, align 8
  call void %0(ptr %1)
  ret void
}

; Function Attrs: mustprogress uwtable
define linkonce_odr void @_ZN9grpc_core8Activity14ScopedActivityC2EPS0_(ptr noundef nonnull align 8 dereferenceable(8) %this, ptr noundef %activity) unnamed_addr #4 comdat align 2 {
entry:
  %this.addr = alloca ptr, align 8
  %activity.addr = alloca ptr, align 8
  store ptr %this, ptr %this.addr, align 8
  store ptr %activity, ptr %activity.addr, align 8
  %this1 = load ptr, ptr %this.addr, align 8
  %prior_activity_ = getelementptr inbounds %"class.grpc_core::Activity::ScopedActivity", ptr %this1, i32 0, i32 0
  %0 = call ptr @_ZTWN9grpc_core8Activity19g_current_activity_E()
  %1 = load ptr, ptr %0, align 8
  store ptr %1, ptr %prior_activity_, align 8
  %2 = load ptr, ptr %activity.addr, align 8
  %3 = call ptr @_ZTWN9grpc_core8Activity19g_current_activity_E()
  store ptr %2, ptr %3, align 8
  ret void
}

; Function Attrs: mustprogress nounwind uwtable
define internal void @"_ZN4absl12lts_2023080219functional_internal13AssertNonNullIZN9grpc_core21promise_filter_detail12BaseCallDataD1EvE3$_0EEvRKT_"(ptr noundef nonnull align 8 dereferenceable(8) %0) #5 {
entry:
  %.addr = alloca ptr, align 8
  store ptr %0, ptr %.addr, align 8
  ret void
}

; Function Attrs: mustprogress uwtable
define linkonce_odr void @_ZN9grpc_core8ActivityC2Ev(ptr noundef nonnull align 8 dereferenceable(8) %this) unnamed_addr #4 comdat align 2 {
entry:
  %this.addr = alloca ptr, align 8
  store ptr %this, ptr %this.addr, align 8
  %this1 = load ptr, ptr %this.addr, align 8
  call void @_ZN9grpc_core10OrphanableC2Ev(ptr noundef nonnull align 8 dereferenceable(8) %this1)
  store ptr getelementptr inbounds ({ [10 x ptr] }, ptr @_ZTVN9grpc_core8ActivityE, i32 0, i32 0, i32 2), ptr %this1, align 8
  ret void
}

; Function Attrs: mustprogress nounwind uwtable
define linkonce_odr void @_ZN9grpc_core8ActivityD2Ev(ptr noundef nonnull align 8 dereferenceable(8) %this) unnamed_addr #5 comdat align 2 {
entry:
  %this.addr = alloca ptr, align 8
  store ptr %this, ptr %this.addr, align 8
  %this1 = load ptr, ptr %this.addr, align 8
  call void @_ZN9grpc_core10OrphanableD2Ev(ptr noundef nonnull align 8 dereferenceable(8) %this1) #3
  ret void
}

; Function Attrs: mustprogress nounwind uwtable
define linkonce_odr void @_ZN9grpc_core8WakeableD2Ev(ptr noundef nonnull align 8 dereferenceable(8) %this) unnamed_addr #5 comdat align 2 {
entry:
  %this.addr = alloca ptr, align 8
  store ptr %this, ptr %this.addr, align 8
  ret void
}

; Function Attrs: mustprogress nounwind uwtable
define internal void @_ZN9grpc_core21promise_filter_detail12_GLOBAL__N_112FakeActivityD2Ev(ptr noundef nonnull align 8 dereferenceable(16) %this) unnamed_addr #5 align 2 {
entry:
  %this.addr = alloca ptr, align 8
  store ptr %this, ptr %this.addr, align 8
  %this1 = load ptr, ptr %this.addr, align 8
  call void @_ZN9grpc_core8ActivityD2Ev(ptr noundef nonnull align 8 dereferenceable(8) %this1) #3
  ret void
}

; Function Attrs: mustprogress uwtable
define internal void @_ZN9grpc_core21promise_filter_detail12_GLOBAL__N_112FakeActivity3RunEN4absl12lts_2023080211FunctionRefIFvvEEE(ptr noundef nonnull align 8 dereferenceable(16) %this, ptr %f.coerce0, ptr %f.coerce1) #4 align 2 personality ptr @__gxx_personality_v0 {
entry:
  %f = alloca %"class.absl::lts_20230802::FunctionRef.6", align 8
  %this.addr = alloca ptr, align 8
  %activity = alloca %"class.grpc_core::Activity::ScopedActivity", align 8
  %exn.slot = alloca ptr, align 8
  %ehselector.slot = alloca i32, align 4
  %0 = getelementptr inbounds { ptr, ptr }, ptr %f, i32 0, i32 0
  store ptr %f.coerce0, ptr %0, align 8
  %1 = getelementptr inbounds { ptr, ptr }, ptr %f, i32 0, i32 1
  store ptr %f.coerce1, ptr %1, align 8
  store ptr %this, ptr %this.addr, align 8
  %this1 = load ptr, ptr %this.addr, align 8
  call void @_ZN9grpc_core8Activity14ScopedActivityC2EPS0_(ptr noundef nonnull align 8 dereferenceable(8) %activity, ptr noundef %this1)
  invoke void @_ZNK4absl12lts_2023080211FunctionRefIFvvEEclEv(ptr noundef nonnull align 8 dereferenceable(16) %f)
          to label %invoke.cont unwind label %lpad

invoke.cont:                                      ; preds = %entry
  call void @_ZN9grpc_core8Activity14ScopedActivityD2Ev(ptr noundef nonnull align 8 dereferenceable(8) %activity) #3
  ret void

lpad:                                             ; preds = %entry
  %2 = landingpad { ptr, i32 }
          cleanup
  %3 = extractvalue { ptr, i32 } %2, 0
  store ptr %3, ptr %exn.slot, align 8
  %4 = extractvalue { ptr, i32 } %2, 1
  store i32 %4, ptr %ehselector.slot, align 4
  call void @_ZN9grpc_core8Activity14ScopedActivityD2Ev(ptr noundef nonnull align 8 dereferenceable(8) %activity) #3
  br label %eh.resume

eh.resume:                                        ; preds = %lpad
  %exn = load ptr, ptr %exn.slot, align 8
  %sel = load i32, ptr %ehselector.slot, align 4
  %lpad.val = insertvalue { ptr, i32 } poison, ptr %exn, 0
  %lpad.val2 = insertvalue { ptr, i32 } %lpad.val, i32 %sel, 1
  resume { ptr, i32 } %lpad.val2
}

; Function Attrs: mustprogress uwtable
define internal void @"_ZN4absl12lts_2023080211FunctionRefIFvvEEC2IZN9grpc_core21promise_filter_detail12BaseCallDataD1EvE3$_0vEERKT_"(ptr noundef nonnull align 8 dereferenceable(16) %this, ptr noundef nonnull align 8 dereferenceable(8) %f) unnamed_addr #4 align 2 {
entry:
  %this.addr = alloca ptr, align 8
  %f.addr = alloca ptr, align 8
  store ptr %this, ptr %this.addr, align 8
  store ptr %f, ptr %f.addr, align 8
  %this1 = load ptr, ptr %this.addr, align 8
  %invoker_ = getelementptr inbounds %"class.absl::lts_20230802::FunctionRef.6", ptr %this1, i32 0, i32 1
  store ptr @"_ZN4absl12lts_2023080219functional_internal12InvokeObjectIZN9grpc_core21promise_filter_detail12BaseCallDataD1EvE3$_0vJEEET0_NS1_7VoidPtrEDpNS1_8ForwardTIT1_E4typeE", ptr %invoker_, align 8
  %0 = load ptr, ptr %f.addr, align 8
  call void @"_ZN4absl12lts_2023080219functional_internal13AssertNonNullIZN9grpc_core21promise_filter_detail12BaseCallDataD1EvE3$_0EEvRKT_"(ptr noundef nonnull align 8 dereferenceable(8) %0)
  %1 = load ptr, ptr %f.addr, align 8
  %ptr_2 = getelementptr inbounds %"class.absl::lts_20230802::FunctionRef.6", ptr %this1, i32 0, i32 0
  store ptr %1, ptr %ptr_2, align 8
  ret void
}

; Function Attrs: mustprogress uwtable
define internal void @_ZN9grpc_core21promise_filter_detail12_GLOBAL__N_112FakeActivityC2EPNS_8ActivityE(ptr noundef nonnull align 8 dereferenceable(16) %this, ptr noundef %wake_activity) unnamed_addr #4 align 2 {
entry:
  %this.addr = alloca ptr, align 8
  %wake_activity.addr = alloca ptr, align 8
  store ptr %this, ptr %this.addr, align 8
  store ptr %wake_activity, ptr %wake_activity.addr, align 8
  %this1 = load ptr, ptr %this.addr, align 8
  call void @_ZN9grpc_core8ActivityC2Ev(ptr noundef nonnull align 8 dereferenceable(8) %this1)
  store ptr getelementptr inbounds ({ [10 x ptr] }, ptr @_ZTVN9grpc_core21promise_filter_detail12_GLOBAL__N_112FakeActivityE, i32 0, i32 0, i32 2), ptr %this1, align 8
  %wake_activity_ = getelementptr inbounds %"class.grpc_core::promise_filter_detail::(anonymous namespace)::FakeActivity", ptr %this1, i32 0, i32 1
  %0 = load ptr, ptr %wake_activity.addr, align 8
  store ptr %0, ptr %wake_activity_, align 8
  ret void
}

; Function Attrs: mustprogress nounwind uwtable
define void @_ZN9grpc_core21promise_filter_detail12BaseCallDataD2Ev(ptr noundef nonnull align 8 dereferenceable(120) %this) unnamed_addr #5 align 2 personality ptr @__gxx_personality_v0 {
entry:
  %this.addr = alloca ptr, align 8
  %ref.tmp = alloca %"class.grpc_core::promise_filter_detail::(anonymous namespace)::FakeActivity", align 8
  %agg.tmp = alloca %"class.absl::lts_20230802::FunctionRef.6", align 8
  %ref.tmp2 = alloca %class.anon, align 8
  store ptr %this, ptr %this.addr, align 8
  %this1 = load ptr, ptr %this.addr, align 8
  store ptr getelementptr inbounds ({ [18 x ptr], [6 x ptr] }, ptr @_ZTVN9grpc_core21promise_filter_detail12BaseCallDataE, i32 0, i32 0, i32 2), ptr %this1, align 8
  %add.ptr = getelementptr inbounds i8, ptr %this1, i64 8
  store ptr getelementptr inbounds ({ [18 x ptr], [6 x ptr] }, ptr @_ZTVN9grpc_core21promise_filter_detail12BaseCallDataE, i32 0, i32 1, i32 2), ptr %add.ptr, align 8
  invoke void @_ZN9grpc_core21promise_filter_detail12_GLOBAL__N_112FakeActivityC2EPNS_8ActivityE(ptr noundef nonnull align 8 dereferenceable(16) %ref.tmp, ptr noundef %this1)
          to label %invoke.cont unwind label %terminate.lpad

invoke.cont:                                      ; preds = %entry
  %0 = getelementptr inbounds %class.anon, ptr %ref.tmp2, i32 0, i32 0
  store ptr %this1, ptr %0, align 8
  invoke void @"_ZN4absl12lts_2023080211FunctionRefIFvvEEC2IZN9grpc_core21promise_filter_detail12BaseCallDataD1EvE3$_0vEERKT_"(ptr noundef nonnull align 8 dereferenceable(16) %agg.tmp, ptr noundef nonnull align 8 dereferenceable(8) %ref.tmp2)
          to label %invoke.cont3 unwind label %terminate.lpad

invoke.cont3:                                     ; preds = %invoke.cont
  %1 = getelementptr inbounds { ptr, ptr }, ptr %agg.tmp, i32 0, i32 0
  %2 = load ptr, ptr %1, align 8
  %3 = getelementptr inbounds { ptr, ptr }, ptr %agg.tmp, i32 0, i32 1
  %4 = load ptr, ptr %3, align 8
  invoke void @_ZN9grpc_core21promise_filter_detail12_GLOBAL__N_112FakeActivity3RunEN4absl12lts_2023080211FunctionRefIFvvEEE(ptr noundef nonnull align 8 dereferenceable(16) %ref.tmp, ptr %2, ptr %4)
          to label %invoke.cont4 unwind label %terminate.lpad

invoke.cont4:                                     ; preds = %invoke.cont3
  call void @_ZN9grpc_core21promise_filter_detail12_GLOBAL__N_112FakeActivityD2Ev(ptr noundef nonnull align 8 dereferenceable(16) %ref.tmp) #3
  %5 = getelementptr inbounds i8, ptr %this1, i64 8
  call void @_ZN9grpc_core8WakeableD2Ev(ptr noundef nonnull align 8 dereferenceable(8) %5) #3
  call void @_ZN9grpc_core8ActivityD2Ev(ptr noundef nonnull align 8 dereferenceable(8) %this1) #3
  ret void

terminate.lpad:                                   ; preds = %invoke.cont3, %invoke.cont, %entry
  %6 = landingpad { ptr, i32 }
          catch ptr null
  %7 = extractvalue { ptr, i32 } %6, 0
  call void @__clang_call_terminate(ptr %7) #16
  unreachable
}