; Function Attrs: nounwind uwtable
define void @_ZN9grpc_core21promise_filter_detail12BaseCallDataD2Ev(ptr noundef nonnull align 8 dereferenceable(120) %this) unnamed_addr #5 align 2 personality ptr @__gxx_personality_v0 {
invoke.cont3:
  %ref.tmp = alloca %"class.grpc_core::promise_filter_detail::(anonymous namespace)::FakeActivity", align 8
  store ptr getelementptr inbounds ({ [18 x ptr], [6 x ptr] }, ptr @_ZTVN9grpc_core21promise_filter_detail12BaseCallDataE, i64 0, i32 0, i64 2), ptr %this, align 8
  %add.ptr = getelementptr inbounds i8, ptr %this, i64 8
  store ptr getelementptr inbounds ({ [18 x ptr], [6 x ptr] }, ptr @_ZTVN9grpc_core21promise_filter_detail12BaseCallDataE, i64 0, i32 1, i64 2), ptr %add.ptr, align 8
  store ptr getelementptr inbounds ({ [10 x ptr] }, ptr @_ZTVN9grpc_core21promise_filter_detail12_GLOBAL__N_112FakeActivityE, i64 0, i32 0, i64 2), ptr %ref.tmp, align 8
  %wake_activity_.i = getelementptr inbounds i8, ptr %ref.tmp, i64 8
  store ptr %this, ptr %wake_activity_.i, align 8
  br i1 icmp ne (ptr @_ZTHN9grpc_core8Activity19g_current_activity_E, ptr null), label %0, label %_ZTWN9grpc_core8Activity19g_current_activity_E.exit.i.i

0:                                                ; preds = %invoke.cont3
  invoke void @_ZTHN9grpc_core8Activity19g_current_activity_E()
          to label %_ZTWN9grpc_core8Activity19g_current_activity_E.exit.i.i unwind label %terminate.lpad

_ZTWN9grpc_core8Activity19g_current_activity_E.exit.i.i: ; preds = %0, %invoke.cont3
  %1 = tail call noundef align 8 ptr @llvm.threadlocal.address.p0(ptr align 8 @_ZN9grpc_core8Activity19g_current_activity_E)
  %2 = load ptr, ptr %1, align 8
  br i1 icmp ne (ptr @_ZTHN9grpc_core8Activity19g_current_activity_E, ptr null), label %3, label %_ZN9grpc_core8Activity14ScopedActivityC2EPS0_.exit.i

3:                                                ; preds = %_ZTWN9grpc_core8Activity19g_current_activity_E.exit.i.i
  invoke void @_ZTHN9grpc_core8Activity19g_current_activity_E()
          to label %_ZN9grpc_core8Activity14ScopedActivityC2EPS0_.exit.i unwind label %terminate.lpad

_ZN9grpc_core8Activity14ScopedActivityC2EPS0_.exit.i: ; preds = %3, %_ZTWN9grpc_core8Activity19g_current_activity_E.exit.i.i
  store ptr %ref.tmp, ptr %1, align 8
  %send_message_.i.i.i.i.i = getelementptr inbounds i8, ptr %this, i64 96
  %4 = load ptr, ptr %send_message_.i.i.i.i.i, align 8
  %cmp.not.i.i.i.i.i = icmp eq ptr %4, null
  br i1 %cmp.not.i.i.i.i.i, label %if.end.i.i.i.i.i, label %if.then.i.i.i.i.i

if.then.i.i.i.i.i:                                ; preds = %_ZN9grpc_core8Activity14ScopedActivityC2EPS0_.exit.i
  %interceptor_.i.i.i.i.i.i = getelementptr inbounds i8, ptr %4, i64 16
  %5 = load ptr, ptr %interceptor_.i.i.i.i.i.i, align 8
  %vtable.i.i.i.i.i.i = load ptr, ptr %5, align 8
  %vfn.i.i.i.i.i.i = getelementptr inbounds i8, ptr %vtable.i.i.i.i.i.i, i64 48
  %6 = load ptr, ptr %vfn.i.i.i.i.i.i, align 8
  call void %6(ptr noundef nonnull align 8 dereferenceable(8) %5) #31
  %completed_status_.i.i.i.i.i.i = getelementptr inbounds i8, ptr %4, i64 176
  %7 = load i64, ptr %completed_status_.i.i.i.i.i.i, align 8
  %and.i.i.i.i.i.i.i.i.i = and i64 %7, 1
  %cmp.i.i.i.i.i.i.i.i.i = icmp eq i64 %and.i.i.i.i.i.i.i.i.i, 0
  br i1 %cmp.i.i.i.i.i.i.i.i.i, label %_ZN4absl12lts_202308026StatusD2Ev.exit.i.i.i.i.i.i, label %if.then.i.i.i.i.i.i.i.i

if.then.i.i.i.i.i.i.i.i:                          ; preds = %if.then.i.i.i.i.i
  invoke void @_ZN4absl12lts_202308026Status15UnrefNonInlinedEm(i64 noundef %7)
          to label %_ZN4absl12lts_202308026StatusD2Ev.exit.i.i.i.i.i.i unwind label %terminate.lpad.i.i.i.i.i.i.i

terminate.lpad.i.i.i.i.i.i.i:                     ; preds = %if.then.i.i.i.i.i.i.i.i
  %8 = landingpad { ptr, i32 }
          catch ptr null
  %9 = extractvalue { ptr, i32 } %8, 0
  call void @__clang_call_terminate(ptr %9) #32
  unreachable

_ZN4absl12lts_202308026StatusD2Ev.exit.i.i.i.i.i.i: ; preds = %if.then.i.i.i.i.i.i.i.i, %if.then.i.i.i.i.i
  %batch_.i.i.i.i.i.i = getelementptr inbounds i8, ptr %4, i64 128
  call void @_ZN9grpc_core21promise_filter_detail12BaseCallData13CapturedBatchD1Ev(ptr noundef nonnull align 8 dereferenceable(8) %batch_.i.i.i.i.i.i) #31
  %_M_engaged.i.i.i.i.i.i.i.i.i.i = getelementptr inbounds i8, ptr %4, i64 120
  %10 = load i8, ptr %_M_engaged.i.i.i.i.i.i.i.i.i.i, align 8
  %11 = and i8 %10, 1
  %tobool.not.i.i.i.i.i.i.i.i.i.i = icmp eq i8 %11, 0
  br i1 %tobool.not.i.i.i.i.i.i.i.i.i.i, label %_ZNSt8optionalIN9grpc_core14promise_detail3SeqINS0_11pipe_detail4NextISt10unique_ptrINS0_7MessageENS0_5Arena13PooledDeleterEEEEJZNS0_12PipeReceiverIS9_E4NextEvEUlS_IS9_EE_EEEED2Ev.exit.i.i.i.i.i.i, label %if.then.i.i.i.i.i.i.i.i.i.i

if.then.i.i.i.i.i.i.i.i.i.i:                      ; preds = %_ZN4absl12lts_202308026StatusD2Ev.exit.i.i.i.i.i.i
  %next_.i.i.i.i.i.i = getelementptr inbounds i8, ptr %4, i64 64
  store i8 0, ptr %_M_engaged.i.i.i.i.i.i.i.i.i.i, align 8
  call void @_ZN9grpc_core14promise_detail8SeqStateINS0_9SeqTraitsENS_11pipe_detail4NextISt10unique_ptrINS_7MessageENS_5Arena13PooledDeleterEEEEJZNS_12PipeReceiverIS9_E4NextEvEUlSt8optionalIS9_EE_EED2Ev(ptr noundef nonnull align 8 dereferenceable(49) %next_.i.i.i.i.i.i) #31
  br label %_ZNSt8optionalIN9grpc_core14promise_detail3SeqINS0_11pipe_detail4NextISt10unique_ptrINS0_7MessageENS0_5Arena13PooledDeleterEEEEJZNS0_12PipeReceiverIS9_E4NextEvEUlS_IS9_EE_EEEED2Ev.exit.i.i.i.i.i.i

_ZNSt8optionalIN9grpc_core14promise_detail3SeqINS0_11pipe_detail4NextISt10unique_ptrINS0_7MessageENS0_5Arena13PooledDeleterEEEEJZNS0_12PipeReceiverIS9_E4NextEvEUlS_IS9_EE_EEEED2Ev.exit.i.i.i.i.i.i: ; preds = %if.then.i.i.i.i.i.i.i.i.i.i, %_ZN4absl12lts_202308026StatusD2Ev.exit.i.i.i.i.i.i
  %_M_engaged.i.i.i.i1.i.i.i.i.i.i = getelementptr inbounds i8, ptr %4, i64 56
  %12 = load i8, ptr %_M_engaged.i.i.i.i1.i.i.i.i.i.i, align 8
  %13 = and i8 %12, 1
  %tobool.not.i.i.i.i2.i.i.i.i.i.i = icmp eq i8 %13, 0
  br i1 %tobool.not.i.i.i.i2.i.i.i.i.i.i, label %if.end.i.i.i.i.i, label %if.then.i.i.i.i3.i.i.i.i.i.i

if.then.i.i.i.i3.i.i.i.i.i.i:                     ; preds = %_ZNSt8optionalIN9grpc_core14promise_detail3SeqINS0_11pipe_detail4NextISt10unique_ptrINS0_7MessageENS0_5Arena13PooledDeleterEEEEJZNS0_12PipeReceiverIS9_E4NextEvEUlS_IS9_EE_EEEED2Ev.exit.i.i.i.i.i.i
  %push_.i.i.i.i.i.i = getelementptr inbounds i8, ptr %4, i64 24
  store i8 0, ptr %_M_engaged.i.i.i.i1.i.i.i.i.i.i, align 8
  call void @_ZN9grpc_core11pipe_detail4PushISt10unique_ptrINS_7MessageENS_5Arena13PooledDeleterEEED2Ev(ptr noundef nonnull align 8 dereferenceable(32) %push_.i.i.i.i.i.i) #31
  br label %if.end.i.i.i.i.i

if.end.i.i.i.i.i:                                 ; preds = %if.then.i.i.i.i3.i.i.i.i.i.i, %_ZNSt8optionalIN9grpc_core14promise_detail3SeqINS0_11pipe_detail4NextISt10unique_ptrINS0_7MessageENS0_5Arena13PooledDeleterEEEEJZNS0_12PipeReceiverIS9_E4NextEvEUlS_IS9_EE_EEEED2Ev.exit.i.i.i.i.i.i, %_ZN9grpc_core8Activity14ScopedActivityC2EPS0_.exit.i
  %receive_message_.i.i.i.i.i = getelementptr inbounds i8, ptr %this, i64 104
  %14 = load ptr, ptr %receive_message_.i.i.i.i.i, align 8
  %cmp3.not.i.i.i.i.i = icmp eq ptr %14, null
  br i1 %cmp3.not.i.i.i.i.i, label %if.end6.i.i.i.i.i, label %if.then4.i.i.i.i.i

if.then4.i.i.i.i.i:                               ; preds = %if.end.i.i.i.i.i
  %interceptor_.i3.i.i.i.i.i = getelementptr inbounds i8, ptr %14, i64 8
  %15 = load ptr, ptr %interceptor_.i3.i.i.i.i.i, align 8
  %vtable.i4.i.i.i.i.i = load ptr, ptr %15, align 8
  %vfn.i5.i.i.i.i.i = getelementptr inbounds i8, ptr %vtable.i4.i.i.i.i.i, i64 48
  %16 = load ptr, ptr %vfn.i5.i.i.i.i.i, align 8
  call void %16(ptr noundef nonnull align 8 dereferenceable(8) %15) #31
  %completed_status_.i6.i.i.i.i.i = getelementptr inbounds i8, ptr %14, i64 144
  %17 = load i64, ptr %completed_status_.i6.i.i.i.i.i, align 8
  %and.i.i.i.i7.i.i.i.i.i = and i64 %17, 1
  %cmp.i.i.i.i8.i.i.i.i.i = icmp eq i64 %and.i.i.i.i7.i.i.i.i.i, 0
  br i1 %cmp.i.i.i.i8.i.i.i.i.i, label %_ZN4absl12lts_202308026StatusD2Ev.exit.i11.i.i.i.i.i, label %if.then.i.i.i9.i.i.i.i.i

if.then.i.i.i9.i.i.i.i.i:                         ; preds = %if.then4.i.i.i.i.i
  invoke void @_ZN4absl12lts_202308026Status15UnrefNonInlinedEm(i64 noundef %17)
          to label %_ZN4absl12lts_202308026StatusD2Ev.exit.i11.i.i.i.i.i unwind label %terminate.lpad.i.i10.i.i.i.i.i

terminate.lpad.i.i10.i.i.i.i.i:                   ; preds = %if.then.i.i.i9.i.i.i.i.i
  %18 = landingpad { ptr, i32 }
          catch ptr null
  %19 = extractvalue { ptr, i32 } %18, 0
  call void @__clang_call_terminate(ptr %19) #32
  unreachable

_ZN4absl12lts_202308026StatusD2Ev.exit.i11.i.i.i.i.i: ; preds = %if.then.i.i.i9.i.i.i.i.i, %if.then4.i.i.i.i.i
  %_M_engaged.i.i.i.i.i12.i.i.i.i.i = getelementptr inbounds i8, ptr %14, i64 136
  %20 = load i8, ptr %_M_engaged.i.i.i.i.i12.i.i.i.i.i, align 8
  %21 = and i8 %20, 1
  %tobool.not.i.i.i.i.i13.i.i.i.i.i = icmp eq i8 %21, 0
  br i1 %tobool.not.i.i.i.i.i13.i.i.i.i.i, label %_ZNSt8optionalIN9grpc_core14promise_detail3SeqINS0_11pipe_detail4NextISt10unique_ptrINS0_7MessageENS0_5Arena13PooledDeleterEEEEJZNS0_12PipeReceiverIS9_E4NextEvEUlS_IS9_EE_EEEED2Ev.exit.i16.i.i.i.i.i, label %if.then.i.i.i.i.i14.i.i.i.i.i

if.then.i.i.i.i.i14.i.i.i.i.i:                    ; preds = %_ZN4absl12lts_202308026StatusD2Ev.exit.i11.i.i.i.i.i
  %next_.i15.i.i.i.i.i = getelementptr inbounds i8, ptr %14, i64 80
  store i8 0, ptr %_M_engaged.i.i.i.i.i12.i.i.i.i.i, align 8
  call void @_ZN9grpc_core14promise_detail8SeqStateINS0_9SeqTraitsENS_11pipe_detail4NextISt10unique_ptrINS_7MessageENS_5Arena13PooledDeleterEEEEJZNS_12PipeReceiverIS9_E4NextEvEUlSt8optionalIS9_EE_EED2Ev(ptr noundef nonnull align 8 dereferenceable(49) %next_.i15.i.i.i.i.i) #31
  br label %_ZNSt8optionalIN9grpc_core14promise_detail3SeqINS0_11pipe_detail4NextISt10unique_ptrINS0_7MessageENS0_5Arena13PooledDeleterEEEEJZNS0_12PipeReceiverIS9_E4NextEvEUlS_IS9_EE_EEEED2Ev.exit.i16.i.i.i.i.i

_ZNSt8optionalIN9grpc_core14promise_detail3SeqINS0_11pipe_detail4NextISt10unique_ptrINS0_7MessageENS0_5Arena13PooledDeleterEEEEJZNS0_12PipeReceiverIS9_E4NextEvEUlS_IS9_EE_EEEED2Ev.exit.i16.i.i.i.i.i: ; preds = %if.then.i.i.i.i.i14.i.i.i.i.i, %_ZN4absl12lts_202308026StatusD2Ev.exit.i11.i.i.i.i.i
  %_M_engaged.i.i.i.i1.i17.i.i.i.i.i = getelementptr inbounds i8, ptr %14, i64 72
  %22 = load i8, ptr %_M_engaged.i.i.i.i1.i17.i.i.i.i.i, align 8
  %23 = and i8 %22, 1
  %tobool.not.i.i.i.i2.i18.i.i.i.i.i = icmp eq i8 %23, 0
  br i1 %tobool.not.i.i.i.i2.i18.i.i.i.i.i, label %if.end6.i.i.i.i.i, label %if.then.i.i.i.i3.i19.i.i.i.i.i

if.then.i.i.i.i3.i19.i.i.i.i.i:                   ; preds = %_ZNSt8optionalIN9grpc_core14promise_detail3SeqINS0_11pipe_detail4NextISt10unique_ptrINS0_7MessageENS0_5Arena13PooledDeleterEEEEJZNS0_12PipeReceiverIS9_E4NextEvEUlS_IS9_EE_EEEED2Ev.exit.i16.i.i.i.i.i
  %push_.i20.i.i.i.i.i = getelementptr inbounds i8, ptr %14, i64 40
  store i8 0, ptr %_M_engaged.i.i.i.i1.i17.i.i.i.i.i, align 8
  call void @_ZN9grpc_core11pipe_detail4PushISt10unique_ptrINS_7MessageENS_5Arena13PooledDeleterEEED2Ev(ptr noundef nonnull align 8 dereferenceable(32) %push_.i20.i.i.i.i.i) #31
  br label %if.end6.i.i.i.i.i

if.end6.i.i.i.i.i:                                ; preds = %if.then.i.i.i.i3.i19.i.i.i.i.i, %_ZNSt8optionalIN9grpc_core14promise_detail3SeqINS0_11pipe_detail4NextISt10unique_ptrINS0_7MessageENS0_5Arena13PooledDeleterEEEEJZNS0_12PipeReceiverIS9_E4NextEvEUlS_IS9_EE_EEEED2Ev.exit.i16.i.i.i.i.i, %if.end.i.i.i.i.i
  %server_initial_metadata_pipe_.i.i.i.i.i = getelementptr inbounds i8, ptr %this, i64 88
  %24 = load ptr, ptr %server_initial_metadata_pipe_.i.i.i.i.i, align 8
  %cmp7.not.i.i.i.i.i = icmp eq ptr %24, null
  br i1 %cmp7.not.i.i.i.i.i, label %invoke.cont.i, label %if.then8.i.i.i.i.i

if.then8.i.i.i.i.i:                               ; preds = %if.end6.i.i.i.i.i
  %receiver.i.i.i.i.i.i = getelementptr inbounds i8, ptr %24, i64 8
  call void @_ZN9grpc_core12PipeReceiverISt10unique_ptrI19grpc_metadata_batchNS_5Arena13PooledDeleterEEED2Ev(ptr noundef nonnull align 8 dereferenceable(8) %receiver.i.i.i.i.i.i) #31
  call void @_ZN9grpc_core10PipeSenderISt10unique_ptrI19grpc_metadata_batchNS_5Arena13PooledDeleterEEED2Ev(ptr noundef nonnull align 8 dereferenceable(8) %24) #31
  br label %invoke.cont.i

invoke.cont.i:                                    ; preds = %if.then8.i.i.i.i.i, %if.end6.i.i.i.i.i
  br i1 icmp ne (ptr @_ZTHN9grpc_core8Activity19g_current_activity_E, ptr null), label %25, label %invoke.cont4

25:                                               ; preds = %invoke.cont.i
  call void @_ZTHN9grpc_core8Activity19g_current_activity_E() #31
  br label %invoke.cont4

invoke.cont4:                                     ; preds = %25, %invoke.cont.i
  store ptr %2, ptr %1, align 8
  ret void

terminate.lpad:                                   ; preds = %3, %0
  %26 = landingpad { ptr, i32 }
          catch ptr null
  %27 = extractvalue { ptr, i32 } %26, 0
  tail call void @__clang_call_terminate(ptr %27) #32
  unreachable
}